; Function Attrs: mustprogress uwtable
define void @_ZN2cv12ppf_match_3d10addNoisePCENS_3MatEd(ptr dead_on_unwind noalias writable sret(%"class.cv::Mat") align 8 %0, ptr noundef %1, double noundef %2) local_unnamed_addr #3 personality ptr @__gxx_personality_v0 {
  %4 = alloca %"class.cv::Mat", align 8
  %5 = alloca %"class.cv::MatExpr", align 8
  call void @llvm.lifetime.start.p0(i64 96, ptr nonnull %4) #36
  %6 = getelementptr inbounds nuw i8, ptr %1, i64 8
  %7 = load i32, ptr %6, align 8, !tbaa !87
  %8 = getelementptr inbounds nuw i8, ptr %1, i64 12
  %9 = load i32, ptr %8, align 4, !tbaa !88
  call void @_ZN2cv12ppf_match_3d12genRandomMatEiiddi(ptr dead_on_unwind nonnull writable sret(%"class.cv::Mat") align 8 %4, i32 noundef %7, i32 noundef %9, double noundef 0.000000e+00, double noundef %2, i32 noundef 5)
  call void @llvm.lifetime.start.p0(i64 352, ptr nonnull %5) #36
  invoke void @_ZN2cvplERKNS_3MatES2_(ptr dead_on_unwind nonnull writable sret(%"class.cv::MatExpr") align 8 %5, ptr noundef nonnull align 8 dereferenceable(96) %4, ptr noundef nonnull align 8 dereferenceable(96) %1)
          to label %10 unwind label %19

10:                                               ; preds = %3
  call void @_ZN2cv3MatC1Ev(ptr noundef nonnull align 8 dereferenceable(96) %0) #36
  %11 = load ptr, ptr %5, align 8, !tbaa !187, !noalias !283
  %12 = load ptr, ptr %11, align 8, !tbaa !45
  %13 = getelementptr inbounds nuw i8, ptr %12, i64 24
  %14 = load ptr, ptr %13, align 8
  invoke void %14(ptr noundef nonnull align 8 dereferenceable(8) %11, ptr noundef nonnull align 8 dereferenceable(352) %5, ptr noundef nonnull align 8 dereferenceable(96) %0, i32 noundef -1)
          to label %_ZNK2cv7MatExprcvNS_3MatEEv.exit unwind label %.body

.body:                                            ; preds = %10
  %15 = landingpad { ptr, i32 }
          cleanup
  call void @_ZN2cv3MatD1Ev(ptr noundef nonnull align 8 dereferenceable(96) %0) #36
  call void @_ZN2cv7MatExprD2Ev(ptr noundef nonnull align 8 dereferenceable(352) %5) #36
  br label %21

_ZNK2cv7MatExprcvNS_3MatEEv.exit:                 ; preds = %10
  %16 = getelementptr inbounds nuw i8, ptr %5, i64 208
  call void @_ZN2cv3MatD1Ev(ptr noundef nonnull align 8 dereferenceable(96) %16) #36
  %17 = getelementptr inbounds nuw i8, ptr %5, i64 112
  call void @_ZN2cv3MatD1Ev(ptr noundef nonnull align 8 dereferenceable(96) %17) #36
  %18 = getelementptr inbounds nuw i8, ptr %5, i64 16
  call void @_ZN2cv3MatD1Ev(ptr noundef nonnull align 8 dereferenceable(96) %18) #36
  call void @llvm.lifetime.end.p0(i64 352, ptr nonnull %5) #36
  call void @_ZN2cv3MatD1Ev(ptr noundef nonnull align 8 dereferenceable(96) %4) #36
  call void @llvm.lifetime.end.p0(i64 96, ptr nonnull %4) #36
  ret void

19:                                               ; preds = %3
  %20 = landingpad { ptr, i32 }
          cleanup
  br label %21

21:                                               ; preds = %.body, %19
  %.pn = phi { ptr, i32 } [ %15, %.body ], [ %20, %19 ]
  call void @llvm.lifetime.end.p0(i64 352, ptr nonnull %5) #36
  call void @_ZN2cv3MatD1Ev(ptr noundef nonnull align 8 dereferenceable(96) %4) #36
  call void @llvm.lifetime.end.p0(i64 96, ptr nonnull %4) #36
  resume { ptr, i32 } %.pn
}